target datalayout = "e-m:e-p270:32:32-p271:32:32-p272:64:64-i64:64-i128:128-f80:128-n8:16:32:64-S128"
target triple = "x86_64-pc-linux-gnu"

%struct.AVFormatContext = type { ptr, ptr, ptr, ptr, ptr, i32, i32, ptr, i32, ptr, i32, ptr, ptr, i64, i64, i64, i32, i32, i32, i64, i64, ptr, i32, i32, ptr, i32, i32, i32, i32, ptr, i64, i32, i32, %struct.AVIOInterruptCB, i32, i32, i32, i32, i64, i32, i32, i32, i32, i32, i32, i32, i32, i32, i32, i32, i32, i64, i32, i32, i32, i32, i32, ptr, ptr, ptr, ptr, i32, ptr, ptr, ptr, ptr, i32, ptr, ptr, i64, ptr, ptr, ptr, i64 }
%struct.AVIOInterruptCB = type { ptr, ptr }
%struct.AVStream = type { ptr, i32, i32, ptr, ptr, %struct.AVRational, i64, i64, i64, i32, i32, %struct.AVRational, ptr, %struct.AVRational, %struct.AVPacket, i32, %struct.AVRational, i32 }
%struct.AVPacket = type { ptr, i64, i64, ptr, i32, i32, i32, ptr, i32, i64, i64, ptr, ptr, %struct.AVRational }
%struct.AVRational = type { i32, i32 }
%struct.AVCodecParameters = type { i32, i32, i32, ptr, i32, ptr, i32, i32, i64, i32, i32, i32, i32, i32, i32, %struct.AVRational, %struct.AVRational, i32, i32, i32, i32, i32, i32, i32, %struct.AVChannelLayout, i32, i32, i32, i32, i32, i32 }
%struct.AVChannelLayout = type { i32, i32, %union.anon, ptr }
%union.anon = type { i64 }

@.str.3 = private unnamed_addr constant [41 x i8] c"Zero FPS specified, defaulting to 1 FPS\0A\00", align 1

; Function Attrs: nounwind uwtable
define internal i32 @vc1t_read_header(ptr noundef %0) #0 {
  %2 = alloca i32, align 4
  %3 = alloca ptr, align 8
  %4 = alloca ptr, align 8
  %5 = alloca ptr, align 8
  %6 = alloca i32, align 4
  %7 = alloca i32, align 4
  %8 = alloca i32, align 4
  %9 = alloca i32, align 4
  %10 = alloca i32, align 4
  store ptr %0, ptr %3, align 8, !tbaa !16
  call void @llvm.lifetime.start.p0(i64 8, ptr %4) #3
  %11 = load ptr, ptr %3, align 8, !tbaa !16
  %12 = getelementptr inbounds nuw %struct.AVFormatContext, ptr %11, i32 0, i32 4
  %13 = load ptr, ptr %12, align 8, !tbaa !18
  store ptr %13, ptr %4, align 8, !tbaa !33
  call void @llvm.lifetime.start.p0(i64 8, ptr %5) #3
  call void @llvm.lifetime.start.p0(i64 4, ptr %6) #3
  call void @llvm.lifetime.start.p0(i64 4, ptr %7) #3
  call void @llvm.lifetime.start.p0(i64 4, ptr %8) #3
  call void @llvm.lifetime.start.p0(i64 4, ptr %9) #3
  %14 = load ptr, ptr %4, align 8, !tbaa !33
  %15 = call i32 @avio_rl24(ptr noundef %14)
  store i32 %15, ptr %6, align 4, !tbaa !15
  %16 = load ptr, ptr %4, align 8, !tbaa !33
  %17 = call i32 @avio_r8(ptr noundef %16)
  %18 = icmp ne i32 %17, 197
  br i1 %18, label %23, label %19

19:                                               ; preds = %1
  %20 = load ptr, ptr %4, align 8, !tbaa !33
  %21 = call i32 @avio_rl32(ptr noundef %20)
  store i32 %21, ptr %9, align 4, !tbaa !15
  %22 = icmp ult i32 %21, 4
  br i1 %22, label %23, label %24

23:                                               ; preds = %19, %1
  store i32 -1094995529, ptr %2, align 4
  store i32 1, ptr %10, align 4
  br label %92

24:                                               ; preds = %19
  %25 = load ptr, ptr %3, align 8, !tbaa !16
  %26 = call ptr @avformat_new_stream(ptr noundef %25, ptr noundef null)
  store ptr %26, ptr %5, align 8, !tbaa !34
  %27 = load ptr, ptr %5, align 8, !tbaa !34
  %28 = icmp ne ptr %27, null
  br i1 %28, label %30, label %29

29:                                               ; preds = %24
  store i32 -12, ptr %2, align 4
  store i32 1, ptr %10, align 4
  br label %92

30:                                               ; preds = %24
  %31 = load ptr, ptr %5, align 8, !tbaa !34
  %32 = getelementptr inbounds nuw %struct.AVStream, ptr %31, i32 0, i32 3
  %33 = load ptr, ptr %32, align 8, !tbaa !36
  %34 = getelementptr inbounds nuw %struct.AVCodecParameters, ptr %33, i32 0, i32 0
  store i32 0, ptr %34, align 8, !tbaa !43
  %35 = load ptr, ptr %5, align 8, !tbaa !34
  %36 = getelementptr inbounds nuw %struct.AVStream, ptr %35, i32 0, i32 3
  %37 = load ptr, ptr %36, align 8, !tbaa !36
  %38 = getelementptr inbounds nuw %struct.AVCodecParameters, ptr %37, i32 0, i32 1
  store i32 71, ptr %38, align 4, !tbaa !46
  %39 = load ptr, ptr %3, align 8, !tbaa !16
  %40 = load ptr, ptr %5, align 8, !tbaa !34
  %41 = getelementptr inbounds nuw %struct.AVStream, ptr %40, i32 0, i32 3
  %42 = load ptr, ptr %41, align 8, !tbaa !36
  %43 = load ptr, ptr %4, align 8, !tbaa !33
  %44 = call i32 @ff_get_extradata(ptr noundef %39, ptr noundef %42, ptr noundef %43, i32 noundef 4)
  store i32 %44, ptr %7, align 4, !tbaa !15
  %45 = icmp slt i32 %44, 0
  br i1 %45, label %46, label %48

46:                                               ; preds = %30
  %47 = load i32, ptr %7, align 4, !tbaa !15
  store i32 %47, ptr %2, align 4
  store i32 1, ptr %10, align 4
  br label %92

48:                                               ; preds = %30
  %49 = load ptr, ptr %4, align 8, !tbaa !33
  %50 = load i32, ptr %9, align 4, !tbaa !15
  %51 = sub i32 %50, 4
  %52 = zext i32 %51 to i64
  %53 = call i64 @avio_skip(ptr noundef %49, i64 noundef %52)
  %54 = load ptr, ptr %4, align 8, !tbaa !33
  %55 = call i32 @avio_rl32(ptr noundef %54)
  %56 = load ptr, ptr %5, align 8, !tbaa !34
  %57 = getelementptr inbounds nuw %struct.AVStream, ptr %56, i32 0, i32 3
  %58 = load ptr, ptr %57, align 8, !tbaa !36
  %59 = getelementptr inbounds nuw %struct.AVCodecParameters, ptr %58, i32 0, i32 14
  store i32 %55, ptr %59, align 4, !tbaa !47
  %60 = load ptr, ptr %4, align 8, !tbaa !33
  %61 = call i32 @avio_rl32(ptr noundef %60)
  %62 = load ptr, ptr %5, align 8, !tbaa !34
  %63 = getelementptr inbounds nuw %struct.AVStream, ptr %62, i32 0, i32 3
  %64 = load ptr, ptr %63, align 8, !tbaa !36
  %65 = getelementptr inbounds nuw %struct.AVCodecParameters, ptr %64, i32 0, i32 13
  store i32 %61, ptr %65, align 8, !tbaa !48
  %66 = load ptr, ptr %4, align 8, !tbaa !33
  %67 = call i32 @avio_rl32(ptr noundef %66)
  %68 = icmp ne i32 %67, 12
  br i1 %68, label %69, label %70

69:                                               ; preds = %48
  store i32 -1094995529, ptr %2, align 4
  store i32 1, ptr %10, align 4
  br label %92

70:                                               ; preds = %48
  %71 = load ptr, ptr %4, align 8, !tbaa !33
  %72 = call i64 @avio_skip(ptr noundef %71, i64 noundef 8)
  %73 = load ptr, ptr %4, align 8, !tbaa !33
  %74 = call i32 @avio_rl32(ptr noundef %73)
  store i32 %74, ptr %8, align 4, !tbaa !15
  %75 = load i32, ptr %8, align 4, !tbaa !15
  %76 = icmp eq i32 %75, -1
  br i1 %76, label %77, label %79

77:                                               ; preds = %70
  %78 = load ptr, ptr %5, align 8, !tbaa !34
  call void @avpriv_set_pts_info(ptr noundef %78, i32 noundef 32, i32 noundef 1, i32 noundef 1000)
  br label %91

79:                                               ; preds = %70
  %80 = load i32, ptr %8, align 4, !tbaa !15
  %81 = icmp ne i32 %80, 0
  br i1 %81, label %84, label %82

82:                                               ; preds = %79
  %83 = load ptr, ptr %3, align 8, !tbaa !16
  call void (ptr, i32, ptr, ...) @av_log(ptr noundef %83, i32 noundef 16, ptr noundef @.str.3)
  store i32 1, ptr %8, align 4, !tbaa !15
  br label %84

84:                                               ; preds = %82, %79
  %85 = load ptr, ptr %5, align 8, !tbaa !34
  %86 = load i32, ptr %8, align 4, !tbaa !15
  call void @avpriv_set_pts_info(ptr noundef %85, i32 noundef 24, i32 noundef 1, i32 noundef %86)
  %87 = load i32, ptr %6, align 4, !tbaa !15
  %88 = sext i32 %87 to i64
  %89 = load ptr, ptr %5, align 8, !tbaa !34
  %90 = getelementptr inbounds nuw %struct.AVStream, ptr %89, i32 0, i32 7
  store i64 %88, ptr %90, align 8, !tbaa !49
  br label %91

91:                                               ; preds = %84, %77
  store i32 0, ptr %2, align 4
  store i32 1, ptr %10, align 4
  br label %92

92:                                               ; preds = %91, %69, %46, %29, %23
  call void @llvm.lifetime.end.p0(i64 4, ptr %9) #3
  call void @llvm.lifetime.end.p0(i64 4, ptr %8) #3
  call void @llvm.lifetime.end.p0(i64 4, ptr %7) #3
  call void @llvm.lifetime.end.p0(i64 4, ptr %6) #3
  call void @llvm.lifetime.end.p0(i64 8, ptr %5) #3
  call void @llvm.lifetime.end.p0(i64 8, ptr %4) #3
  %93 = load i32, ptr %2, align 4
  ret i32 %93
}