; Function Attrs: nounwind uwtable
define internal range(i32 -2147483648, 1) i32 @vc1t_read_header(ptr noundef %0) #1 {
  %2 = getelementptr inbounds nuw i8, ptr %0, i64 32
  %3 = load ptr, ptr %2, align 8, !tbaa !13
  %4 = tail call i32 @avio_rl24(ptr noundef %3) #3
  %5 = tail call i32 @avio_r8(ptr noundef %3) #3
  %.not = icmp eq i32 %5, 197
  br i1 %.not, label %6, label %36

6:                                                ; preds = %1
  %7 = tail call i32 @avio_rl32(ptr noundef %3) #3
  %8 = icmp ult i32 %7, 4
  br i1 %8, label %36, label %9

9:                                                ; preds = %6
  %10 = tail call ptr @avformat_new_stream(ptr noundef nonnull %0, ptr noundef null) #3
  %.not34 = icmp eq ptr %10, null
  br i1 %.not34, label %36, label %11

11:                                               ; preds = %9
  %12 = getelementptr inbounds nuw i8, ptr %10, i64 16
  %13 = load ptr, ptr %12, align 8, !tbaa !28
  store i32 0, ptr %13, align 8, !tbaa !35
  %14 = getelementptr inbounds nuw i8, ptr %13, i64 4
  store i32 71, ptr %14, align 4, !tbaa !38
  %15 = tail call i32 @ff_get_extradata(ptr noundef nonnull %0, ptr noundef nonnull %13, ptr noundef %3, i32 noundef 4) #3
  %16 = icmp slt i32 %15, 0
  br i1 %16, label %36, label %17

17:                                               ; preds = %11
  %18 = add i32 %7, -4
  %19 = zext i32 %18 to i64
  %20 = tail call i64 @avio_skip(ptr noundef %3, i64 noundef %19) #3
  %21 = tail call i32 @avio_rl32(ptr noundef %3) #3
  %22 = load ptr, ptr %12, align 8, !tbaa !28
  %23 = getelementptr inbounds nuw i8, ptr %22, i64 76
  store i32 %21, ptr %23, align 4, !tbaa !39
  %24 = tail call i32 @avio_rl32(ptr noundef %3) #3
  %25 = load ptr, ptr %12, align 8, !tbaa !28
  %26 = getelementptr inbounds nuw i8, ptr %25, i64 72
  store i32 %24, ptr %26, align 8, !tbaa !40
  %27 = tail call i32 @avio_rl32(ptr noundef %3) #3
  %.not35 = icmp eq i32 %27, 12
  br i1 %.not35, label %28, label %36

28:                                               ; preds = %17
  %29 = tail call i64 @avio_skip(ptr noundef %3, i64 noundef 8) #3
  %30 = tail call i32 @avio_rl32(ptr noundef %3) #3
  switch i32 %30, label %33 [
    i32 -1, label %31
    i32 0, label %32
  ]

31:                                               ; preds = %28
  tail call void @avpriv_set_pts_info(ptr noundef nonnull %10, i32 noundef 32, i32 noundef 1, i32 noundef 1000) #3
  br label %36

32:                                               ; preds = %28
  tail call void (ptr, i32, ptr, ...) @av_log(ptr noundef nonnull %0, i32 noundef 16, ptr noundef nonnull @.str.3) #3
  br label %33

33:                                               ; preds = %28, %32
  %.029 = phi i32 [ 1, %32 ], [ %30, %28 ]
  tail call void @avpriv_set_pts_info(ptr noundef nonnull %10, i32 noundef 24, i32 noundef 1, i32 noundef %.029) #3
  %34 = sext i32 %4 to i64
  %35 = getelementptr inbounds nuw i8, ptr %10, i64 48
  store i64 %34, ptr %35, align 8, !tbaa !41
  br label %36

36:                                               ; preds = %31, %33, %17, %11, %9, %1, %6
  %.0 = phi i32 [ -1094995529, %6 ], [ -1094995529, %1 ], [ -12, %9 ], [ %15, %11 ], [ -1094995529, %17 ], [ 0, %33 ], [ 0, %31 ]
  ret i32 %.0
}